target datalayout = "e-m:e-p270:32:32-p271:32:32-p272:64:64-i64:64-i128:128-f80:128-n8:16:32:64-S128"
target triple = "x86_64-pc-linux-gnu"

%struct.ossl_algorithm_st = type { ptr, ptr, ptr, ptr }

@exported_ciphers = internal global [131 x %struct.ossl_algorithm_st] zeroinitializer, align 16
@deflt_store = internal constant [2 x %struct.ossl_algorithm_st] [%struct.ossl_algorithm_st { ptr @.str.225, ptr @.str.226, ptr @ossl_file_store_functions, ptr null }, %struct.ossl_algorithm_st zeroinitializer], align 16

; Function Attrs: nounwind uwtable
define internal ptr @deflt_query(ptr noundef %0, i32 noundef %1, ptr noundef %2) #0 {
  %4 = alloca ptr, align 8
  %5 = alloca ptr, align 8
  %6 = alloca i32, align 4
  %7 = alloca ptr, align 8
  store ptr %0, ptr %5, align 8, !tbaa !12
  store i32 %1, ptr %6, align 4, !tbaa !23
  store ptr %2, ptr %7, align 8, !tbaa !24
  %8 = load ptr, ptr %7, align 8, !tbaa !24
  store i32 0, ptr %8, align 4, !tbaa !23
  %9 = load i32, ptr %6, align 4, !tbaa !23
  switch i32 %9, label %24 [
    i32 1, label %10
    i32 2, label %11
    i32 3, label %12
    i32 4, label %13
    i32 5, label %14
    i32 10, label %15
    i32 11, label %16
    i32 12, label %17
    i32 13, label %18
    i32 14, label %19
    i32 20, label %20
    i32 21, label %21
    i32 22, label %22
    i32 15, label %23
  ]

10:                                               ; preds = %3
  store ptr @deflt_digests, ptr %4, align 8
  br label %25

11:                                               ; preds = %3
  store ptr @exported_ciphers, ptr %4, align 8
  br label %25

12:                                               ; preds = %3
  store ptr @deflt_macs, ptr %4, align 8
  br label %25

13:                                               ; preds = %3
  store ptr @deflt_kdfs, ptr %4, align 8
  br label %25

14:                                               ; preds = %3
  store ptr @deflt_rands, ptr %4, align 8
  br label %25

15:                                               ; preds = %3
  store ptr @deflt_keymgmt, ptr %4, align 8
  br label %25

16:                                               ; preds = %3
  store ptr @deflt_keyexch, ptr %4, align 8
  br label %25

17:                                               ; preds = %3
  store ptr @deflt_signature, ptr %4, align 8
  br label %25

18:                                               ; preds = %3
  store ptr @deflt_asym_cipher, ptr %4, align 8
  br label %25

19:                                               ; preds = %3
  store ptr @deflt_asym_kem, ptr %4, align 8
  br label %25

20:                                               ; preds = %3
  store ptr @deflt_encoder, ptr %4, align 8
  br label %25

21:                                               ; preds = %3
  store ptr @deflt_decoder, ptr %4, align 8
  br label %25

22:                                               ; preds = %3
  store ptr @deflt_store, ptr %4, align 8
  br label %25

23:                                               ; preds = %3
  store ptr @deflt_skeymgmt, ptr %4, align 8
  br label %25

24:                                               ; preds = %3
  store ptr null, ptr %4, align 8
  br label %25

25:                                               ; preds = %24, %23, %22, %21, %20, %19, %18, %17, %16, %15, %14, %13, %12, %11, %10
  %26 = load ptr, ptr %4, align 8
  ret ptr %26
}